target datalayout = "e-m:e-p270:32:32-p271:32:32-p272:64:64-i64:64-i128:128-f80:128-n8:16:32:64-S128"
target triple = "x86_64-pc-linux-gnu"

@hf_hartip_pt_rsp_pv_loop_current = internal global i32 0, align 4
@hf_hartip_pt_rsp_pv_units = internal global i32 0, align 4
@hf_hartip_pt_rsp_pv = internal global i32 0, align 4
@hf_hartip_pt_rsp_sv_units = internal global i32 0, align 4
@hf_hartip_pt_rsp_sv = internal global i32 0, align 4
@hf_hartip_pt_rsp_tv_units = internal global i32 0, align 4
@hf_hartip_pt_rsp_tv = internal global i32 0, align 4
@hf_hartip_pt_rsp_qv_units = internal global i32 0, align 4
@hf_hartip_pt_rsp_qv = internal global i32 0, align 4

; Function Attrs: null_pointer_is_valid sspstrong uwtable
define internal i32 @dissect_byte(ptr noundef %0, i32 noundef %1, ptr noundef %2, i32 noundef %3) #0 {
  %5 = alloca ptr, align 8
  %6 = alloca i32, align 4
  %7 = alloca ptr, align 8
  %8 = alloca i32, align 4
  store ptr %0, ptr %5, align 8
  store i32 %1, ptr %6, align 4
  store ptr %2, ptr %7, align 8
  store i32 %3, ptr %8, align 4
  %9 = load ptr, ptr %5, align 8
  %10 = load i32, ptr %6, align 4
  %11 = load ptr, ptr %7, align 8
  %12 = load i32, ptr %8, align 4
  %13 = call ptr @proto_tree_add_item(ptr noundef %9, i32 noundef %10, ptr noundef %11, i32 noundef %12, i32 noundef 1, i32 noundef 0)
  ret i32 1
}

; Function Attrs: null_pointer_is_valid sspstrong uwtable
define internal i32 @dissect_float(ptr noundef %0, i32 noundef %1, ptr noundef %2, i32 noundef %3) #0 {
  %5 = alloca ptr, align 8
  %6 = alloca i32, align 4
  %7 = alloca ptr, align 8
  %8 = alloca i32, align 4
  store ptr %0, ptr %5, align 8
  store i32 %1, ptr %6, align 4
  store ptr %2, ptr %7, align 8
  store i32 %3, ptr %8, align 4
  %9 = load ptr, ptr %5, align 8
  %10 = load i32, ptr %6, align 4
  %11 = load ptr, ptr %7, align 8
  %12 = load i32, ptr %8, align 4
  %13 = call ptr @proto_tree_add_item(ptr noundef %9, i32 noundef %10, ptr noundef %11, i32 noundef %12, i32 noundef 4, i32 noundef 0)
  ret i32 4
}

; Function Attrs: null_pointer_is_valid sspstrong uwtable
define internal i32 @dissect_cmd3(ptr noundef %0, ptr noundef %1, i32 noundef %2, i32 noundef %3) #0 {
  %5 = alloca i32, align 4
  %6 = alloca ptr, align 8
  %7 = alloca ptr, align 8
  %8 = alloca i32, align 4
  %9 = alloca i32, align 4
  store ptr %0, ptr %6, align 8
  store ptr %1, ptr %7, align 8
  store i32 %2, ptr %8, align 4
  store i32 %3, ptr %9, align 4
  %10 = load i32, ptr %9, align 4
  %11 = icmp sge i32 %10, 24
  br i1 %11, label %12, label %75

12:                                               ; preds = %4
  %13 = load ptr, ptr %6, align 8
  %14 = load i32, ptr @hf_hartip_pt_rsp_pv_loop_current, align 4
  %15 = load ptr, ptr %7, align 8
  %16 = load i32, ptr %8, align 4
  %17 = call i32 @dissect_float(ptr noundef %13, i32 noundef %14, ptr noundef %15, i32 noundef %16)
  %18 = load i32, ptr %8, align 4
  %19 = add i32 %18, %17
  store i32 %19, ptr %8, align 4
  %20 = load ptr, ptr %6, align 8
  %21 = load i32, ptr @hf_hartip_pt_rsp_pv_units, align 4
  %22 = load ptr, ptr %7, align 8
  %23 = load i32, ptr %8, align 4
  %24 = call i32 @dissect_byte(ptr noundef %20, i32 noundef %21, ptr noundef %22, i32 noundef %23)
  %25 = load i32, ptr %8, align 4
  %26 = add i32 %25, %24
  store i32 %26, ptr %8, align 4
  %27 = load ptr, ptr %6, align 8
  %28 = load i32, ptr @hf_hartip_pt_rsp_pv, align 4
  %29 = load ptr, ptr %7, align 8
  %30 = load i32, ptr %8, align 4
  %31 = call i32 @dissect_float(ptr noundef %27, i32 noundef %28, ptr noundef %29, i32 noundef %30)
  %32 = load i32, ptr %8, align 4
  %33 = add i32 %32, %31
  store i32 %33, ptr %8, align 4
  %34 = load ptr, ptr %6, align 8
  %35 = load i32, ptr @hf_hartip_pt_rsp_sv_units, align 4
  %36 = load ptr, ptr %7, align 8
  %37 = load i32, ptr %8, align 4
  %38 = call i32 @dissect_byte(ptr noundef %34, i32 noundef %35, ptr noundef %36, i32 noundef %37)
  %39 = load i32, ptr %8, align 4
  %40 = add i32 %39, %38
  store i32 %40, ptr %8, align 4
  %41 = load ptr, ptr %6, align 8
  %42 = load i32, ptr @hf_hartip_pt_rsp_sv, align 4
  %43 = load ptr, ptr %7, align 8
  %44 = load i32, ptr %8, align 4
  %45 = call i32 @dissect_float(ptr noundef %41, i32 noundef %42, ptr noundef %43, i32 noundef %44)
  %46 = load i32, ptr %8, align 4
  %47 = add i32 %46, %45
  store i32 %47, ptr %8, align 4
  %48 = load ptr, ptr %6, align 8
  %49 = load i32, ptr @hf_hartip_pt_rsp_tv_units, align 4
  %50 = load ptr, ptr %7, align 8
  %51 = load i32, ptr %8, align 4
  %52 = call i32 @dissect_byte(ptr noundef %48, i32 noundef %49, ptr noundef %50, i32 noundef %51)
  %53 = load i32, ptr %8, align 4
  %54 = add i32 %53, %52
  store i32 %54, ptr %8, align 4
  %55 = load ptr, ptr %6, align 8
  %56 = load i32, ptr @hf_hartip_pt_rsp_tv, align 4
  %57 = load ptr, ptr %7, align 8
  %58 = load i32, ptr %8, align 4
  %59 = call i32 @dissect_float(ptr noundef %55, i32 noundef %56, ptr noundef %57, i32 noundef %58)
  %60 = load i32, ptr %8, align 4
  %61 = add i32 %60, %59
  store i32 %61, ptr %8, align 4
  %62 = load ptr, ptr %6, align 8
  %63 = load i32, ptr @hf_hartip_pt_rsp_qv_units, align 4
  %64 = load ptr, ptr %7, align 8
  %65 = load i32, ptr %8, align 4
  %66 = call i32 @dissect_byte(ptr noundef %62, i32 noundef %63, ptr noundef %64, i32 noundef %65)
  %67 = load i32, ptr %8, align 4
  %68 = add i32 %67, %66
  store i32 %68, ptr %8, align 4
  %69 = load ptr, ptr %6, align 8
  %70 = load i32, ptr @hf_hartip_pt_rsp_qv, align 4
  %71 = load ptr, ptr %7, align 8
  %72 = load i32, ptr %8, align 4
  %73 = call i32 @dissect_float(ptr noundef %69, i32 noundef %70, ptr noundef %71, i32 noundef %72)
  %74 = load i32, ptr %9, align 4
  store i32 %74, ptr %5, align 4
  br label %76

75:                                               ; preds = %4
  store i32 0, ptr %5, align 4
  br label %76

76:                                               ; preds = %75, %12
  %77 = load i32, ptr %5, align 4
  ret i32 %77
}