; Function Attrs: null_pointer_is_valid sspstrong uwtable
define internal fastcc range(i32 0, 2147483647) i32 @dissect_cmd3(ptr noundef %0, ptr noundef %1, i32 noundef %2, i32 noundef range(i32 1, 2147483647) %3) unnamed_addr #0 {
  %5 = icmp samesign ugt i32 %3, 23
  br i1 %5, label %6, label %33

6:                                                ; preds = %4
  %7 = load i32, ptr @hf_hartip_pt_rsp_pv_loop_current, align 4
  %8 = tail call ptr @proto_tree_add_item(ptr noundef %0, i32 noundef %7, ptr noundef %1, i32 noundef %2, i32 noundef 4, i32 noundef 0)
  %9 = add i32 %2, 4
  %10 = load i32, ptr @hf_hartip_pt_rsp_pv_units, align 4
  %11 = tail call ptr @proto_tree_add_item(ptr noundef %0, i32 noundef %10, ptr noundef %1, i32 noundef %9, i32 noundef 1, i32 noundef 0)
  %12 = add i32 %2, 5
  %13 = load i32, ptr @hf_hartip_pt_rsp_pv, align 4
  %14 = tail call ptr @proto_tree_add_item(ptr noundef %0, i32 noundef %13, ptr noundef %1, i32 noundef %12, i32 noundef 4, i32 noundef 0)
  %15 = add i32 %2, 9
  %16 = load i32, ptr @hf_hartip_pt_rsp_sv_units, align 4
  %17 = tail call ptr @proto_tree_add_item(ptr noundef %0, i32 noundef %16, ptr noundef %1, i32 noundef %15, i32 noundef 1, i32 noundef 0)
  %18 = add i32 %2, 10
  %19 = load i32, ptr @hf_hartip_pt_rsp_sv, align 4
  %20 = tail call ptr @proto_tree_add_item(ptr noundef %0, i32 noundef %19, ptr noundef %1, i32 noundef %18, i32 noundef 4, i32 noundef 0)
  %21 = add i32 %2, 14
  %22 = load i32, ptr @hf_hartip_pt_rsp_tv_units, align 4
  %23 = tail call ptr @proto_tree_add_item(ptr noundef %0, i32 noundef %22, ptr noundef %1, i32 noundef %21, i32 noundef 1, i32 noundef 0)
  %24 = add i32 %2, 15
  %25 = load i32, ptr @hf_hartip_pt_rsp_tv, align 4
  %26 = tail call ptr @proto_tree_add_item(ptr noundef %0, i32 noundef %25, ptr noundef %1, i32 noundef %24, i32 noundef 4, i32 noundef 0)
  %27 = add i32 %2, 19
  %28 = load i32, ptr @hf_hartip_pt_rsp_qv_units, align 4
  %29 = tail call ptr @proto_tree_add_item(ptr noundef %0, i32 noundef %28, ptr noundef %1, i32 noundef %27, i32 noundef 1, i32 noundef 0)
  %30 = add i32 %2, 20
  %31 = load i32, ptr @hf_hartip_pt_rsp_qv, align 4
  %32 = tail call ptr @proto_tree_add_item(ptr noundef %0, i32 noundef %31, ptr noundef %1, i32 noundef %30, i32 noundef 4, i32 noundef 0)
  br label %33

33:                                               ; preds = %4, %6
  %.0 = phi i32 [ %3, %6 ], [ 0, %4 ]
  ret i32 %.0
}